target datalayout = "e-m:e-p270:32:32-p271:32:32-p272:64:64-i64:64-i128:128-f80:128-n8:16:32:64-S128"
target triple = "x86_64-pc-linux-gnu"

%struct.pmix_byte_object = type { ptr, i64 }

; Function Attrs: nounwind uwtable
define i32 @pmix_bfrops_base_copy_bo(ptr noundef %0, ptr noundef %1, i16 noundef zeroext %2) #0 {
  %4 = alloca i32, align 4
  %5 = alloca ptr, align 8
  %6 = alloca ptr, align 8
  %7 = alloca i16, align 2
  store ptr %0, ptr %5, align 8, !tbaa !99
  store ptr %1, ptr %6, align 8, !tbaa !34
  store i16 %2, ptr %7, align 2, !tbaa !9
  %8 = call noalias ptr @malloc(i64 noundef 16) #12
  %9 = load ptr, ptr %5, align 8, !tbaa !99
  store ptr %8, ptr %9, align 8, !tbaa !34
  %10 = load ptr, ptr %5, align 8, !tbaa !99
  %11 = load ptr, ptr %10, align 8, !tbaa !34
  %12 = icmp eq ptr null, %11
  br i1 %12, label %13, label %14

13:                                               ; preds = %3
  store i32 -29, ptr %4, align 4
  br label %38

14:                                               ; preds = %3
  %15 = load ptr, ptr %6, align 8, !tbaa !34
  %16 = getelementptr inbounds nuw %struct.pmix_byte_object, ptr %15, i32 0, i32 1
  %17 = load i64, ptr %16, align 8, !tbaa !44
  %18 = call noalias ptr @malloc(i64 noundef %17) #12
  %19 = load ptr, ptr %5, align 8, !tbaa !99
  %20 = load ptr, ptr %19, align 8, !tbaa !34
  %21 = getelementptr inbounds nuw %struct.pmix_byte_object, ptr %20, i32 0, i32 0
  store ptr %18, ptr %21, align 8, !tbaa !42
  %22 = load ptr, ptr %5, align 8, !tbaa !99
  %23 = load ptr, ptr %22, align 8, !tbaa !34
  %24 = getelementptr inbounds nuw %struct.pmix_byte_object, ptr %23, i32 0, i32 0
  %25 = load ptr, ptr %24, align 8, !tbaa !42
  %26 = load ptr, ptr %6, align 8, !tbaa !34
  %27 = getelementptr inbounds nuw %struct.pmix_byte_object, ptr %26, i32 0, i32 0
  %28 = load ptr, ptr %27, align 8, !tbaa !42
  %29 = load ptr, ptr %6, align 8, !tbaa !34
  %30 = getelementptr inbounds nuw %struct.pmix_byte_object, ptr %29, i32 0, i32 1
  %31 = load i64, ptr %30, align 8, !tbaa !44
  call void @llvm.memcpy.p0.p0.i64(ptr align 1 %25, ptr align 1 %28, i64 %31, i1 false)
  %32 = load ptr, ptr %6, align 8, !tbaa !34
  %33 = getelementptr inbounds nuw %struct.pmix_byte_object, ptr %32, i32 0, i32 1
  %34 = load i64, ptr %33, align 8, !tbaa !44
  %35 = load ptr, ptr %5, align 8, !tbaa !99
  %36 = load ptr, ptr %35, align 8, !tbaa !34
  %37 = getelementptr inbounds nuw %struct.pmix_byte_object, ptr %36, i32 0, i32 1
  store i64 %34, ptr %37, align 8, !tbaa !44
  store i32 0, ptr %4, align 4
  br label %38

38:                                               ; preds = %14, %13
  %39 = load i32, ptr %4, align 4
  ret i32 %39
}