; Function Attrs: mustprogress nofree nounwind willreturn uwtable
define range(i32 -29, 1) i32 @pmix_bfrops_base_copy_bo(ptr noundef writeonly captures(none) initializes((0, 8)) %0, ptr noundef readonly captures(none) %1, i16 noundef zeroext %2) local_unnamed_addr #4 {
  %4 = tail call noalias dereferenceable_or_null(16) ptr @malloc(i64 noundef 16) #25
  store ptr %4, ptr %0, align 8, !tbaa !78
  %5 = icmp eq ptr %4, null
  br i1 %5, label %12, label %6

6:                                                ; preds = %3
  %7 = getelementptr inbounds nuw i8, ptr %1, i64 8
  %8 = load i64, ptr %7, align 8, !tbaa !39
  %9 = tail call noalias ptr @malloc(i64 noundef %8) #25
  store ptr %9, ptr %4, align 8, !tbaa !37
  %10 = load ptr, ptr %1, align 8, !tbaa !37
  tail call void @llvm.memcpy.p0.p0.i64(ptr align 1 %9, ptr align 1 %10, i64 %8, i1 false)
  %11 = getelementptr inbounds nuw i8, ptr %4, i64 8
  store i64 %8, ptr %11, align 8, !tbaa !39
  br label %12

12:                                               ; preds = %3, %6
  %.0 = phi i32 [ 0, %6 ], [ -29, %3 ]
  ret i32 %.0
}